target datalayout = "e-m:e-p270:32:32-p271:32:32-p272:64:64-i64:64-i128:128-f80:128-n8:16:32:64-S128"
target triple = "x86_64-pc-linux-gnu"

%struct.named_captures_data = type { i64, i64 }

; Function Attrs: inlinehint nounwind sspstrong willreturn memory(none) uwtable
define internal i64 @RB_INT2FIX(i64 noundef %0) #7 {
  %2 = alloca i64, align 8
  %3 = alloca i64, align 8
  %4 = alloca i64, align 8
  %5 = alloca i64, align 8
  %6 = alloca i64, align 8
  %7 = alloca i64, align 8
  store i64 %0, ptr %2, align 8, !tbaa !6
  call void @llvm.lifetime.start.p0(i64 8, ptr %3) #23
  %8 = load i64, ptr %2, align 8, !tbaa !6
  store i64 %8, ptr %3, align 8, !tbaa !6
  call void @llvm.lifetime.start.p0(i64 8, ptr %4) #23
  %9 = load i64, ptr %3, align 8, !tbaa !6
  %10 = shl i64 %9, 1
  %11 = add i64 %10, 1
  store i64 %11, ptr %4, align 8, !tbaa !6
  call void @llvm.lifetime.start.p0(i64 8, ptr %5) #23
  %12 = load i64, ptr %4, align 8, !tbaa !6
  store i64 %12, ptr %5, align 8, !tbaa !6
  call void @llvm.lifetime.start.p0(i64 8, ptr %6) #23
  %13 = load i64, ptr %5, align 8, !tbaa !6
  store i64 %13, ptr %6, align 8, !tbaa !6
  call void @llvm.lifetime.start.p0(i64 8, ptr %7) #23
  %14 = load i64, ptr %6, align 8, !tbaa !6
  store i64 %14, ptr %7, align 8, !tbaa !6
  %15 = load i64, ptr %7, align 8, !tbaa !6
  call void @llvm.lifetime.end.p0(i64 8, ptr %7) #23
  call void @llvm.lifetime.end.p0(i64 8, ptr %6) #23
  call void @llvm.lifetime.end.p0(i64 8, ptr %5) #23
  call void @llvm.lifetime.end.p0(i64 8, ptr %4) #23
  call void @llvm.lifetime.end.p0(i64 8, ptr %3) #23
  ret i64 %15
}

; Function Attrs: inlinehint nounwind sspstrong uwtable
define internal i64 @rb_int2num_inline(i32 noundef %0) #4 {
  %2 = alloca i64, align 8
  %3 = alloca i32, align 4
  store i32 %0, ptr %3, align 4, !tbaa !10
  %4 = load i32, ptr %3, align 4, !tbaa !10
  %5 = sext i32 %4 to i64
  %6 = icmp slt i64 %5, 4611686018427387904
  br i1 %6, label %7, label %15

7:                                                ; preds = %1
  %8 = load i32, ptr %3, align 4, !tbaa !10
  %9 = sext i32 %8 to i64
  %10 = icmp sge i64 %9, -4611686018427387904
  br i1 %10, label %11, label %15

11:                                               ; preds = %7
  %12 = load i32, ptr %3, align 4, !tbaa !10
  %13 = sext i32 %12 to i64
  %14 = call i64 @RB_INT2FIX(i64 noundef %13) #24
  store i64 %14, ptr %2, align 8
  br label %19

15:                                               ; preds = %7, %1
  %16 = load i32, ptr %3, align 4, !tbaa !10
  %17 = sext i32 %16 to i64
  %18 = call i64 @rb_int2big(i64 noundef %17)
  store i64 %18, ptr %2, align 8
  br label %19

19:                                               ; preds = %15, %11
  %20 = load i64, ptr %2, align 8
  ret i64 %20
}

; Function Attrs: nounwind sspstrong uwtable
define internal i32 @named_captures_iter(ptr noundef %0, ptr noundef %1, i32 noundef %2, ptr noundef %3, ptr noundef %4, ptr noundef %5) #0 {
  %7 = alloca ptr, align 8
  %8 = alloca ptr, align 8
  %9 = alloca i32, align 4
  %10 = alloca ptr, align 8
  %11 = alloca ptr, align 8
  %12 = alloca ptr, align 8
  %13 = alloca ptr, align 8
  %14 = alloca i64, align 8
  %15 = alloca i64, align 8
  %16 = alloca i32, align 4
  store ptr %0, ptr %7, align 8, !tbaa !12
  store ptr %1, ptr %8, align 8, !tbaa !12
  store i32 %2, ptr %9, align 4, !tbaa !10
  store ptr %3, ptr %10, align 8, !tbaa !73
  store ptr %4, ptr %11, align 8, !tbaa !65
  store ptr %5, ptr %12, align 8, !tbaa !52
  call void @llvm.lifetime.start.p0(i64 8, ptr %13) #23
  %17 = load ptr, ptr %12, align 8, !tbaa !52
  store ptr %17, ptr %13, align 8, !tbaa !52
  call void @llvm.lifetime.start.p0(i64 8, ptr %14) #23
  br i1 false, label %18, label %25

18:                                               ; preds = %6
  %19 = load ptr, ptr %8, align 8, !tbaa !12
  %20 = load ptr, ptr %7, align 8, !tbaa !12
  %21 = ptrtoint ptr %19 to i64
  %22 = ptrtoint ptr %20 to i64
  %23 = sub i64 %21, %22
  %24 = call i1 @llvm.is.constant.i64(i64 %23)
  br label %25

25:                                               ; preds = %18, %6
  %26 = phi i1 [ false, %6 ], [ %24, %18 ]
  %27 = select i1 %26, ptr @rb_str_new_static, ptr @rb_str_new
  %28 = load ptr, ptr %7, align 8, !tbaa !12
  %29 = load ptr, ptr %8, align 8, !tbaa !12
  %30 = load ptr, ptr %7, align 8, !tbaa !12
  %31 = ptrtoint ptr %29 to i64
  %32 = ptrtoint ptr %30 to i64
  %33 = sub i64 %31, %32
  %34 = call i64 %27(ptr noundef %28, i64 noundef %33)
  store i64 %34, ptr %14, align 8, !tbaa !6
  call void @llvm.lifetime.start.p0(i64 8, ptr %15) #23
  store i64 4, ptr %15, align 8, !tbaa !6
  call void @llvm.lifetime.start.p0(i64 4, ptr %16) #23
  store i32 0, ptr %16, align 4, !tbaa !10
  br label %35

35:                                               ; preds = %50, %25
  %36 = load i32, ptr %16, align 4, !tbaa !10
  %37 = load i32, ptr %9, align 4, !tbaa !10
  %38 = icmp slt i32 %36, %37
  br i1 %38, label %39, label %53

39:                                               ; preds = %35
  %40 = load ptr, ptr %13, align 8, !tbaa !52
  %41 = getelementptr inbounds nuw %struct.named_captures_data, ptr %40, i32 0, i32 0
  %42 = load i64, ptr %41, align 8, !tbaa !43
  %43 = load ptr, ptr %10, align 8, !tbaa !73
  %44 = load i32, ptr %16, align 4, !tbaa !10
  %45 = sext i32 %44 to i64
  %46 = getelementptr inbounds i32, ptr %43, i64 %45
  %47 = load i32, ptr %46, align 4, !tbaa !10
  %48 = call i64 @rb_int2num_inline(i32 noundef %47)
  %49 = call i64 @strscan_aref(i64 noundef %42, i64 noundef %48)
  store i64 %49, ptr %15, align 8, !tbaa !6
  br label %50

50:                                               ; preds = %39
  %51 = load i32, ptr %16, align 4, !tbaa !10
  %52 = add nsw i32 %51, 1
  store i32 %52, ptr %16, align 4, !tbaa !10
  br label %35, !llvm.loop !75

53:                                               ; preds = %35
  %54 = load ptr, ptr %13, align 8, !tbaa !52
  %55 = getelementptr inbounds nuw %struct.named_captures_data, ptr %54, i32 0, i32 1
  %56 = load i64, ptr %55, align 8, !tbaa !45
  %57 = load i64, ptr %14, align 8, !tbaa !6
  %58 = load i64, ptr %15, align 8, !tbaa !6
  %59 = call i64 @rb_hash_aset(i64 noundef %56, i64 noundef %57, i64 noundef %58)
  call void @llvm.lifetime.end.p0(i64 4, ptr %16) #23
  call void @llvm.lifetime.end.p0(i64 8, ptr %15) #23
  call void @llvm.lifetime.end.p0(i64 8, ptr %14) #23
  call void @llvm.lifetime.end.p0(i64 8, ptr %13) #23
  ret i32 0
}