; Function Attrs: nounwind sspstrong uwtable
define internal noundef i32 @named_captures_iter(ptr noundef %0, ptr noundef %1, i32 noundef %2, ptr noundef readonly captures(none) %3, ptr readnone captures(none) %4, ptr noundef readonly captures(none) %5) #0 {
  %7 = ptrtoint ptr %1 to i64
  %8 = ptrtoint ptr %0 to i64
  %9 = sub i64 %7, %8
  %10 = tail call i64 @rb_str_new(ptr noundef %0, i64 noundef %9) #12
  %11 = icmp sgt i32 %2, 0
  br i1 %11, label %.lr.ph.preheader, label %._crit_edge

.lr.ph.preheader:                                 ; preds = %6
  %wide.trip.count = zext nneg i32 %2 to i64
  br label %.lr.ph

.lr.ph:                                           ; preds = %.lr.ph.preheader, %.lr.ph
  %indvars.iv = phi i64 [ 0, %.lr.ph.preheader ], [ %indvars.iv.next, %.lr.ph ]
  %12 = load i64, ptr %5, align 8, !tbaa !103
  %13 = getelementptr inbounds nuw i32, ptr %3, i64 %indvars.iv
  %14 = load i32, ptr %13, align 4, !tbaa !6
  %15 = sext i32 %14 to i64
  %16 = shl nsw i64 %15, 1
  %17 = or disjoint i64 %16, 1
  %18 = tail call i64 @strscan_aref(i64 noundef %12, i64 noundef %17)
  %indvars.iv.next = add nuw nsw i64 %indvars.iv, 1
  %exitcond.not = icmp eq i64 %indvars.iv.next, %wide.trip.count
  br i1 %exitcond.not, label %._crit_edge, label %.lr.ph, !llvm.loop !126

._crit_edge:                                      ; preds = %.lr.ph, %6
  %.012.lcssa = phi i64 [ 4, %6 ], [ %18, %.lr.ph ]
  %19 = getelementptr inbounds nuw i8, ptr %5, i64 8
  %20 = load i64, ptr %19, align 8, !tbaa !105
  %21 = tail call i64 @rb_hash_aset(i64 noundef %20, i64 noundef %10, i64 noundef %.012.lcssa) #12
  ret i32 0
}